; Function Attrs: mustprogress nofree norecurse nosync nounwind willreturn memory(read, inaccessiblemem: none) uwtable
define dso_local noundef i32 @_ZNK30btMultiBodySphericalJointMotor12getIslandIdAEv(ptr nocapture noundef nonnull readonly align 8 dereferenceable(204) %this) unnamed_addr #4 align 2 {
entry:
  %m_linkA = getelementptr inbounds i8, ptr %this, i64 24
  %0 = load i32, ptr %m_linkA, align 8
  %cmp = icmp slt i32 %0, 0
  %m_bodyA = getelementptr inbounds i8, ptr %this, i64 8
  %1 = load ptr, ptr %m_bodyA, align 8
  br i1 %cmp, label %if.then, label %if.else

if.then:                                          ; preds = %entry
  %m_baseCollider.i = getelementptr inbounds i8, ptr %1, i64 8
  %2 = load ptr, ptr %m_baseCollider.i, align 8
  %tobool.not = icmp eq ptr %2, null
  br i1 %tobool.not, label %return, label %return.sink.split

if.else:                                          ; preds = %entry
  %m_data.i.i = getelementptr inbounds i8, ptr %1, i64 192
  %3 = load ptr, ptr %m_data.i.i, align 8
  %idxprom.i.i = zext nneg i32 %0 to i64
  %m_collider = getelementptr inbounds %struct.btMultibodyLink, ptr %3, i64 %idxprom.i.i, i32 22
  %4 = load ptr, ptr %m_collider, align 8
  %tobool7.not = icmp eq ptr %4, null
  br i1 %tobool7.not, label %return, label %return.sink.split

return.sink.split:                                ; preds = %if.else, %if.then
  %.sink = phi ptr [ %2, %if.then ], [ %4, %if.else ]
  %m_islandTag1.i5 = getelementptr inbounds i8, ptr %.sink, i64 228
  %5 = load i32, ptr %m_islandTag1.i5, align 4
  br label %return

return:                                           ; preds = %return.sink.split, %if.then, %if.else
  %retval.0 = phi i32 [ -1, %if.else ], [ -1, %if.then ], [ %5, %return.sink.split ]
  ret i32 %retval.0
}